target datalayout = "e-m:e-p270:32:32-p271:32:32-p272:64:64-i64:64-i128:128-f80:128-n8:16:32:64-S128"
target triple = "x86_64-pc-linux-gnu"

%struct.archive_write = type { %struct.archive, i32, i64, i64, ptr, i64, ptr, ptr, ptr, ptr, ptr, i32, i32, ptr, ptr, ptr, ptr, ptr, ptr, ptr, ptr, ptr, ptr, ptr, ptr, ptr, ptr }
%struct.archive = type { i32, i32, ptr, i32, ptr, i32, i32, ptr, %struct.archive_string, ptr, i32, i32, ptr, ptr, i64, i64, i64, i8, i64 }
%struct.archive_string = type { ptr, i64, i64 }
%struct.zip = type { i64, i64, i64, i64, i64, i64, ptr, i32, i32, i32, i32, i32, %struct.trad_enc_ctx, i8, i8, i32, %struct.archive_crypto_ctx, i8, ptr, i8, ptr, i64, ptr, ptr, ptr, i64, i64, i64, ptr, ptr, i32, i32, i32, i32, i32, %struct.z_stream_s, i64, ptr }
%struct.trad_enc_ctx = type { [3 x i32] }
%struct.archive_crypto_ctx = type { ptr, ptr, [32 x i8], i32, [16 x i8], [16 x i8], i32 }
%struct.z_stream_s = type { ptr, i32, i64, ptr, i32, i64, ptr, ptr, ptr, ptr, ptr, i32, i64, i64 }

@.str = private unnamed_addr constant [42 x i8] c"archive_write_zip_set_compression_deflate\00", align 1
@.str.2 = private unnamed_addr constant [69 x i8] c"Can only use archive_write_zip_set_compression_store with zip format\00", align 1

; Function Attrs: nounwind uwtable
define dso_local i32 @archive_write_zip_set_compression_store(ptr noundef %0) #0 {
  %2 = alloca i32, align 4
  %3 = alloca ptr, align 8
  %4 = alloca ptr, align 8
  %5 = alloca ptr, align 8
  %6 = alloca i32, align 4
  %7 = alloca i32, align 4
  %8 = alloca i32, align 4
  store ptr %0, ptr %3, align 8, !tbaa !4
  call void @llvm.lifetime.start.p0(i64 8, ptr %4) #11
  %9 = load ptr, ptr %3, align 8, !tbaa !4
  store ptr %9, ptr %4, align 8, !tbaa !9
  call void @llvm.lifetime.start.p0(i64 8, ptr %5) #11
  %10 = load ptr, ptr %4, align 8, !tbaa !9
  %11 = getelementptr inbounds nuw %struct.archive_write, ptr %10, i32 0, i32 15
  %12 = load ptr, ptr %11, align 8, !tbaa !22
  store ptr %12, ptr %5, align 8, !tbaa !23
  call void @llvm.lifetime.start.p0(i64 4, ptr %6) #11
  store i32 -25, ptr %6, align 4, !tbaa !11
  br label %13

13:                                               ; preds = %1
  call void @llvm.lifetime.start.p0(i64 4, ptr %7) #11
  %14 = load ptr, ptr %3, align 8, !tbaa !4
  %15 = call i32 @__archive_check_magic(ptr noundef %14, i32 noundef -1329217314, i32 noundef 7, ptr noundef @.str)
  store i32 %15, ptr %7, align 4, !tbaa !11
  %16 = load i32, ptr %7, align 4, !tbaa !11
  %17 = icmp eq i32 %16, -30
  br i1 %17, label %18, label %19

18:                                               ; preds = %13
  store i32 -30, ptr %2, align 4
  store i32 1, ptr %8, align 4
  br label %20

19:                                               ; preds = %13
  store i32 0, ptr %8, align 4
  br label %20

20:                                               ; preds = %19, %18
  call void @llvm.lifetime.end.p0(i64 4, ptr %7) #11
  %21 = load i32, ptr %8, align 4
  switch i32 %21, label %38 [
    i32 0, label %22
  ]

22:                                               ; preds = %20
  br label %23

23:                                               ; preds = %22
  br label %24

24:                                               ; preds = %23
  %25 = load ptr, ptr %4, align 8, !tbaa !9
  %26 = getelementptr inbounds nuw %struct.archive_write, ptr %25, i32 0, i32 0
  %27 = getelementptr inbounds nuw %struct.archive, ptr %26, i32 0, i32 3
  %28 = load i32, ptr %27, align 8, !tbaa !13
  %29 = icmp ne i32 %28, 327680
  br i1 %29, label %30, label %33

30:                                               ; preds = %24
  %31 = load ptr, ptr %4, align 8, !tbaa !9
  %32 = getelementptr inbounds nuw %struct.archive_write, ptr %31, i32 0, i32 0
  call void (ptr, i32, ptr, ...) @archive_set_error(ptr noundef %32, i32 noundef -1, ptr noundef @.str.2)
  store i32 -30, ptr %6, align 4, !tbaa !11
  br label %36

33:                                               ; preds = %24
  %34 = load ptr, ptr %5, align 8, !tbaa !23
  %35 = getelementptr inbounds nuw %struct.zip, ptr %34, i32 0, i32 30
  store i32 0, ptr %35, align 8, !tbaa !25
  store i32 0, ptr %6, align 4, !tbaa !11
  br label %36

36:                                               ; preds = %33, %30
  %37 = load i32, ptr %6, align 4, !tbaa !11
  store i32 %37, ptr %2, align 4
  store i32 1, ptr %8, align 4
  br label %38

38:                                               ; preds = %36, %20
  call void @llvm.lifetime.end.p0(i64 4, ptr %6) #11
  call void @llvm.lifetime.end.p0(i64 8, ptr %5) #11
  call void @llvm.lifetime.end.p0(i64 8, ptr %4) #11
  %39 = load i32, ptr %2, align 4
  ret i32 %39
}