; Function Attrs: nounwind uwtable
define dso_local range(i32 -30, 1) i32 @archive_write_zip_set_compression_store(ptr noundef %0) local_unnamed_addr #0 {
  %2 = getelementptr inbounds nuw i8, ptr %0, i64 248
  %3 = load ptr, ptr %2, align 8, !tbaa !17
  %4 = tail call i32 @__archive_check_magic(ptr noundef %0, i32 noundef -1329217314, i32 noundef 7, ptr noundef nonnull @.str) #13
  %.not = icmp eq i32 %4, -30
  br i1 %.not, label %11, label %5

5:                                                ; preds = %1
  %6 = getelementptr inbounds nuw i8, ptr %0, i64 16
  %7 = load i32, ptr %6, align 8, !tbaa !4
  %.not11 = icmp eq i32 %7, 327680
  br i1 %.not11, label %9, label %8

8:                                                ; preds = %5
  tail call void (ptr, i32, ptr, ...) @archive_set_error(ptr noundef nonnull %0, i32 noundef -1, ptr noundef nonnull @.str.2) #13
  br label %11

9:                                                ; preds = %5
  %10 = getelementptr inbounds nuw i8, ptr %3, i64 288
  store i32 0, ptr %10, align 8, !tbaa !18
  br label %11

11:                                               ; preds = %8, %9, %1
  %.1 = phi i32 [ -30, %1 ], [ -30, %8 ], [ 0, %9 ]
  ret i32 %.1
}